target datalayout = "e-m:e-p270:32:32-p271:32:32-p272:64:64-i64:64-i128:128-f80:128-n8:16:32:64-S128"
target triple = "x86_64-pc-linux-gnu"

%struct.AVFilterContext = type { ptr, ptr, ptr, ptr, ptr, i32, ptr, ptr, i32, ptr, ptr, i32, i32, ptr, ptr, ptr, ptr, i32, ptr, i32, i32 }
%struct.AVChannelLayout = type { i32, i32, %union.anon.1, ptr }
%union.anon.1 = type { i64 }
%struct.AVRational = type { i32, i32 }
%struct.LumakeyContext = type { ptr, double, double, double, i32, i32, i32, i32, ptr }
%struct.AVFrame = type { [8 x ptr], [8 x i32], ptr, i32, i32, i32, i32, i32, %struct.AVRational, i64, i64, %struct.AVRational, i32, ptr, i32, i32, [8 x ptr], ptr, i32, ptr, i32, i32, i32, i32, i32, i32, i32, i64, ptr, i32, ptr, ptr, i64, i64, i64, i64, ptr, %struct.AVChannelLayout, i64 }

; Function Attrs: nounwind uwtable
define internal i32 @do_lumakey_slice8(ptr noundef %0, ptr noundef %1, i32 noundef %2, i32 noundef %3) #0 {
  %5 = alloca ptr, align 8
  %6 = alloca ptr, align 8
  %7 = alloca i32, align 4
  %8 = alloca i32, align 4
  %9 = alloca ptr, align 8
  %10 = alloca ptr, align 8
  %11 = alloca i32, align 4
  %12 = alloca i32, align 4
  %13 = alloca ptr, align 8
  %14 = alloca ptr, align 8
  %15 = alloca i32, align 4
  %16 = alloca i32, align 4
  %17 = alloca i32, align 4
  %18 = alloca i32, align 4
  %19 = alloca i32, align 4
  store ptr %0, ptr %5, align 8, !tbaa !4
  store ptr %1, ptr %6, align 8, !tbaa !61
  store i32 %2, ptr %7, align 4, !tbaa !11
  store i32 %3, ptr %8, align 4, !tbaa !11
  call void @llvm.lifetime.start.p0(i64 8, ptr %9) #5
  %20 = load ptr, ptr %5, align 8, !tbaa !4
  %21 = getelementptr inbounds nuw %struct.AVFilterContext, ptr %20, i32 0, i32 9
  %22 = load ptr, ptr %21, align 8, !tbaa !36
  store ptr %22, ptr %9, align 8, !tbaa !37
  call void @llvm.lifetime.start.p0(i64 8, ptr %10) #5
  %23 = load ptr, ptr %6, align 8, !tbaa !61
  store ptr %23, ptr %10, align 8, !tbaa !26
  call void @llvm.lifetime.start.p0(i64 4, ptr %11) #5
  %24 = load ptr, ptr %10, align 8, !tbaa !26
  %25 = getelementptr inbounds nuw %struct.AVFrame, ptr %24, i32 0, i32 4
  %26 = load i32, ptr %25, align 4, !tbaa !42
  %27 = load i32, ptr %7, align 4, !tbaa !11
  %28 = mul nsw i32 %26, %27
  %29 = load i32, ptr %8, align 4, !tbaa !11
  %30 = sdiv i32 %28, %29
  store i32 %30, ptr %11, align 4, !tbaa !11
  call void @llvm.lifetime.start.p0(i64 4, ptr %12) #5
  %31 = load ptr, ptr %10, align 8, !tbaa !26
  %32 = getelementptr inbounds nuw %struct.AVFrame, ptr %31, i32 0, i32 4
  %33 = load i32, ptr %32, align 4, !tbaa !42
  %34 = load i32, ptr %7, align 4, !tbaa !11
  %35 = add nsw i32 %34, 1
  %36 = mul nsw i32 %33, %35
  %37 = load i32, ptr %8, align 4, !tbaa !11
  %38 = sdiv i32 %36, %37
  store i32 %38, ptr %12, align 4, !tbaa !11
  call void @llvm.lifetime.start.p0(i64 8, ptr %13) #5
  %39 = load ptr, ptr %10, align 8, !tbaa !26
  %40 = getelementptr inbounds nuw %struct.AVFrame, ptr %39, i32 0, i32 0
  %41 = getelementptr inbounds [8 x ptr], ptr %40, i64 0, i64 3
  %42 = load ptr, ptr %41, align 8, !tbaa !9
  %43 = load i32, ptr %11, align 4, !tbaa !11
  %44 = load ptr, ptr %10, align 8, !tbaa !26
  %45 = getelementptr inbounds nuw %struct.AVFrame, ptr %44, i32 0, i32 1
  %46 = getelementptr inbounds [8 x i32], ptr %45, i64 0, i64 3
  %47 = load i32, ptr %46, align 4, !tbaa !11
  %48 = mul nsw i32 %43, %47
  %49 = sext i32 %48 to i64
  %50 = getelementptr inbounds i8, ptr %42, i64 %49
  store ptr %50, ptr %13, align 8, !tbaa !9
  call void @llvm.lifetime.start.p0(i64 8, ptr %14) #5
  %51 = load ptr, ptr %10, align 8, !tbaa !26
  %52 = getelementptr inbounds nuw %struct.AVFrame, ptr %51, i32 0, i32 0
  %53 = getelementptr inbounds [8 x ptr], ptr %52, i64 0, i64 0
  %54 = load ptr, ptr %53, align 8, !tbaa !9
  %55 = load i32, ptr %11, align 4, !tbaa !11
  %56 = load ptr, ptr %10, align 8, !tbaa !26
  %57 = getelementptr inbounds nuw %struct.AVFrame, ptr %56, i32 0, i32 1
  %58 = getelementptr inbounds [8 x i32], ptr %57, i64 0, i64 0
  %59 = load i32, ptr %58, align 8, !tbaa !11
  %60 = mul nsw i32 %55, %59
  %61 = sext i32 %60 to i64
  %62 = getelementptr inbounds i8, ptr %54, i64 %61
  store ptr %62, ptr %14, align 8, !tbaa !9
  call void @llvm.lifetime.start.p0(i64 4, ptr %15) #5
  %63 = load ptr, ptr %9, align 8, !tbaa !37
  %64 = getelementptr inbounds nuw %struct.LumakeyContext, ptr %63, i32 0, i32 6
  %65 = load i32, ptr %64, align 8, !tbaa !59
  store i32 %65, ptr %15, align 4, !tbaa !11
  call void @llvm.lifetime.start.p0(i64 4, ptr %16) #5
  %66 = load ptr, ptr %9, align 8, !tbaa !37
  %67 = getelementptr inbounds nuw %struct.LumakeyContext, ptr %66, i32 0, i32 4
  %68 = load i32, ptr %67, align 8, !tbaa !56
  store i32 %68, ptr %16, align 4, !tbaa !11
  call void @llvm.lifetime.start.p0(i64 4, ptr %17) #5
  %69 = load ptr, ptr %9, align 8, !tbaa !37
  %70 = getelementptr inbounds nuw %struct.LumakeyContext, ptr %69, i32 0, i32 5
  %71 = load i32, ptr %70, align 4, !tbaa !57
  store i32 %71, ptr %17, align 4, !tbaa !11
  call void @llvm.lifetime.start.p0(i64 4, ptr %18) #5
  call void @llvm.lifetime.start.p0(i64 4, ptr %19) #5
  %72 = load i32, ptr %11, align 4, !tbaa !11
  store i32 %72, ptr %19, align 4, !tbaa !11
  br label %73

73:                                               ; preds = %196, %4
  %74 = load i32, ptr %19, align 4, !tbaa !11
  %75 = load i32, ptr %12, align 4, !tbaa !11
  %76 = icmp slt i32 %74, %75
  br i1 %76, label %77, label %199

77:                                               ; preds = %73
  store i32 0, ptr %18, align 4, !tbaa !11
  br label %78

78:                                               ; preds = %178, %77
  %79 = load i32, ptr %18, align 4, !tbaa !11
  %80 = load ptr, ptr %10, align 8, !tbaa !26
  %81 = getelementptr inbounds nuw %struct.AVFrame, ptr %80, i32 0, i32 3
  %82 = load i32, ptr %81, align 8, !tbaa !62
  %83 = icmp slt i32 %79, %82
  br i1 %83, label %84, label %181

84:                                               ; preds = %78
  %85 = load ptr, ptr %14, align 8, !tbaa !9
  %86 = load i32, ptr %18, align 4, !tbaa !11
  %87 = sext i32 %86 to i64
  %88 = getelementptr inbounds i8, ptr %85, i64 %87
  %89 = load i8, ptr %88, align 1, !tbaa !63
  %90 = zext i8 %89 to i32
  %91 = load i32, ptr %17, align 4, !tbaa !11
  %92 = icmp sge i32 %90, %91
  br i1 %92, label %93, label %107

93:                                               ; preds = %84
  %94 = load ptr, ptr %14, align 8, !tbaa !9
  %95 = load i32, ptr %18, align 4, !tbaa !11
  %96 = sext i32 %95 to i64
  %97 = getelementptr inbounds i8, ptr %94, i64 %96
  %98 = load i8, ptr %97, align 1, !tbaa !63
  %99 = zext i8 %98 to i32
  %100 = load i32, ptr %16, align 4, !tbaa !11
  %101 = icmp sle i32 %99, %100
  br i1 %101, label %102, label %107

102:                                              ; preds = %93
  %103 = load ptr, ptr %13, align 8, !tbaa !9
  %104 = load i32, ptr %18, align 4, !tbaa !11
  %105 = sext i32 %104 to i64
  %106 = getelementptr inbounds i8, ptr %103, i64 %105
  store i8 0, ptr %106, align 1, !tbaa !63
  br label %177

107:                                              ; preds = %93, %84
  %108 = load ptr, ptr %14, align 8, !tbaa !9
  %109 = load i32, ptr %18, align 4, !tbaa !11
  %110 = sext i32 %109 to i64
  %111 = getelementptr inbounds i8, ptr %108, i64 %110
  %112 = load i8, ptr %111, align 1, !tbaa !63
  %113 = zext i8 %112 to i32
  %114 = load i32, ptr %17, align 4, !tbaa !11
  %115 = load i32, ptr %15, align 4, !tbaa !11
  %116 = sub nsw i32 %114, %115
  %117 = icmp sgt i32 %113, %116
  br i1 %117, label %118, label %176

118:                                              ; preds = %107
  %119 = load ptr, ptr %14, align 8, !tbaa !9
  %120 = load i32, ptr %18, align 4, !tbaa !11
  %121 = sext i32 %120 to i64
  %122 = getelementptr inbounds i8, ptr %119, i64 %121
  %123 = load i8, ptr %122, align 1, !tbaa !63
  %124 = zext i8 %123 to i32
  %125 = load i32, ptr %16, align 4, !tbaa !11
  %126 = load i32, ptr %15, align 4, !tbaa !11
  %127 = add nsw i32 %125, %126
  %128 = icmp slt i32 %124, %127
  br i1 %128, label %129, label %176

129:                                              ; preds = %118
  %130 = load ptr, ptr %14, align 8, !tbaa !9
  %131 = load i32, ptr %18, align 4, !tbaa !11
  %132 = sext i32 %131 to i64
  %133 = getelementptr inbounds i8, ptr %130, i64 %132
  %134 = load i8, ptr %133, align 1, !tbaa !63
  %135 = zext i8 %134 to i32
  %136 = load i32, ptr %17, align 4, !tbaa !11
  %137 = icmp slt i32 %135, %136
  br i1 %137, label %138, label %158

138:                                              ; preds = %129
  %139 = load ptr, ptr %14, align 8, !tbaa !9
  %140 = load i32, ptr %18, align 4, !tbaa !11
  %141 = sext i32 %140 to i64
  %142 = getelementptr inbounds i8, ptr %139, i64 %141
  %143 = load i8, ptr %142, align 1, !tbaa !63
  %144 = zext i8 %143 to i32
  %145 = load i32, ptr %17, align 4, !tbaa !11
  %146 = sub nsw i32 %144, %145
  %147 = load i32, ptr %15, align 4, !tbaa !11
  %148 = add nsw i32 %146, %147
  %149 = mul nsw i32 %148, 255
  %150 = load i32, ptr %15, align 4, !tbaa !11
  %151 = sdiv i32 %149, %150
  %152 = sub nsw i32 255, %151
  %153 = trunc i32 %152 to i8
  %154 = load ptr, ptr %13, align 8, !tbaa !9
  %155 = load i32, ptr %18, align 4, !tbaa !11
  %156 = sext i32 %155 to i64
  %157 = getelementptr inbounds i8, ptr %154, i64 %156
  store i8 %153, ptr %157, align 1, !tbaa !63
  br label %175

158:                                              ; preds = %129
  %159 = load ptr, ptr %14, align 8, !tbaa !9
  %160 = load i32, ptr %18, align 4, !tbaa !11
  %161 = sext i32 %160 to i64
  %162 = getelementptr inbounds i8, ptr %159, i64 %161
  %163 = load i8, ptr %162, align 1, !tbaa !63
  %164 = zext i8 %163 to i32
  %165 = load i32, ptr %16, align 4, !tbaa !11
  %166 = sub nsw i32 %164, %165
  %167 = mul nsw i32 %166, 255
  %168 = load i32, ptr %15, align 4, !tbaa !11
  %169 = sdiv i32 %167, %168
  %170 = trunc i32 %169 to i8
  %171 = load ptr, ptr %13, align 8, !tbaa !9
  %172 = load i32, ptr %18, align 4, !tbaa !11
  %173 = sext i32 %172 to i64
  %174 = getelementptr inbounds i8, ptr %171, i64 %173
  store i8 %170, ptr %174, align 1, !tbaa !63
  br label %175

175:                                              ; preds = %158, %138
  br label %176

176:                                              ; preds = %175, %118, %107
  br label %177

177:                                              ; preds = %176, %102
  br label %178

178:                                              ; preds = %177
  %179 = load i32, ptr %18, align 4, !tbaa !11
  %180 = add nsw i32 %179, 1
  store i32 %180, ptr %18, align 4, !tbaa !11
  br label %78, !llvm.loop !64

181:                                              ; preds = %78
  %182 = load ptr, ptr %10, align 8, !tbaa !26
  %183 = getelementptr inbounds nuw %struct.AVFrame, ptr %182, i32 0, i32 1
  %184 = getelementptr inbounds [8 x i32], ptr %183, i64 0, i64 0
  %185 = load i32, ptr %184, align 8, !tbaa !11
  %186 = load ptr, ptr %14, align 8, !tbaa !9
  %187 = sext i32 %185 to i64
  %188 = getelementptr inbounds i8, ptr %186, i64 %187
  store ptr %188, ptr %14, align 8, !tbaa !9
  %189 = load ptr, ptr %10, align 8, !tbaa !26
  %190 = getelementptr inbounds nuw %struct.AVFrame, ptr %189, i32 0, i32 1
  %191 = getelementptr inbounds [8 x i32], ptr %190, i64 0, i64 3
  %192 = load i32, ptr %191, align 4, !tbaa !11
  %193 = load ptr, ptr %13, align 8, !tbaa !9
  %194 = sext i32 %192 to i64
  %195 = getelementptr inbounds i8, ptr %193, i64 %194
  store ptr %195, ptr %13, align 8, !tbaa !9
  br label %196

196:                                              ; preds = %181
  %197 = load i32, ptr %19, align 4, !tbaa !11
  %198 = add nsw i32 %197, 1
  store i32 %198, ptr %19, align 4, !tbaa !11
  br label %73, !llvm.loop !66

199:                                              ; preds = %73
  call void @llvm.lifetime.end.p0(i64 4, ptr %19) #5
  call void @llvm.lifetime.end.p0(i64 4, ptr %18) #5
  call void @llvm.lifetime.end.p0(i64 4, ptr %17) #5
  call void @llvm.lifetime.end.p0(i64 4, ptr %16) #5
  call void @llvm.lifetime.end.p0(i64 4, ptr %15) #5
  call void @llvm.lifetime.end.p0(i64 8, ptr %14) #5
  call void @llvm.lifetime.end.p0(i64 8, ptr %13) #5
  call void @llvm.lifetime.end.p0(i64 4, ptr %12) #5
  call void @llvm.lifetime.end.p0(i64 4, ptr %11) #5
  call void @llvm.lifetime.end.p0(i64 8, ptr %10) #5
  call void @llvm.lifetime.end.p0(i64 8, ptr %9) #5
  ret i32 0
}