; Function Attrs: nofree norecurse nosync nounwind memory(readwrite, inaccessiblemem: none) uwtable
define internal noundef i32 @do_lumakey_slice8(ptr noundef readonly captures(none) %0, ptr noundef readonly captures(none) %1, i32 noundef %2, i32 noundef %3) #3 {
  %5 = getelementptr inbounds nuw i8, ptr %0, i64 72
  %6 = load ptr, ptr %5, align 8, !tbaa !32
  %7 = getelementptr inbounds nuw i8, ptr %1, i64 108
  %8 = load i32, ptr %7, align 4, !tbaa !45
  %9 = mul nsw i32 %8, %2
  %10 = sdiv i32 %9, %3
  %11 = add nsw i32 %2, 1
  %12 = mul nsw i32 %8, %11
  %13 = sdiv i32 %12, %3
  %14 = getelementptr inbounds nuw i8, ptr %1, i64 64
  %15 = getelementptr inbounds nuw i8, ptr %1, i64 76
  %16 = getelementptr inbounds nuw i8, ptr %6, i64 40
  %17 = load i32, ptr %16, align 8, !tbaa !44
  %18 = getelementptr inbounds nuw i8, ptr %6, i64 32
  %19 = load i32, ptr %18, align 8, !tbaa !41
  %20 = getelementptr inbounds nuw i8, ptr %6, i64 36
  %21 = load i32, ptr %20, align 4, !tbaa !42
  %22 = icmp slt i32 %10, %13
  br i1 %22, label %.preheader.lr.ph, label %._crit_edge72

.preheader.lr.ph:                                 ; preds = %4
  %23 = getelementptr inbounds nuw i8, ptr %1, i64 104
  %24 = sub nsw i32 %21, %17
  %25 = add nsw i32 %19, %17
  %26 = sub i32 %17, %21
  %27 = load i32, ptr %23, align 8, !tbaa !52
  %28 = icmp sgt i32 %27, 0
  br i1 %28, label %.preheader.preheader, label %._crit_edge72

.preheader.preheader:                             ; preds = %.preheader.lr.ph
  %29 = getelementptr inbounds nuw i8, ptr %1, i64 24
  %30 = load ptr, ptr %29, align 8, !tbaa !53
  %31 = load i32, ptr %15, align 4, !tbaa !54
  %32 = mul nsw i32 %31, %10
  %33 = sext i32 %32 to i64
  %34 = getelementptr inbounds i8, ptr %30, i64 %33
  %35 = load ptr, ptr %1, align 8, !tbaa !53
  %36 = load i32, ptr %14, align 8, !tbaa !54
  %37 = mul nsw i32 %36, %10
  %38 = sext i32 %37 to i64
  %39 = getelementptr inbounds i8, ptr %35, i64 %38
  br label %.preheader

.preheader:                                       ; preds = %.preheader.preheader, %._crit_edge
  %40 = phi i32 [ %67, %._crit_edge ], [ %31, %.preheader.preheader ]
  %41 = phi i32 [ %68, %._crit_edge ], [ %36, %.preheader.preheader ]
  %42 = phi i32 [ %69, %._crit_edge ], [ %27, %.preheader.preheader ]
  %.071 = phi i32 [ %74, %._crit_edge ], [ %10, %.preheader.preheader ]
  %.06070 = phi ptr [ %73, %._crit_edge ], [ %34, %.preheader.preheader ]
  %.06169 = phi ptr [ %71, %._crit_edge ], [ %39, %.preheader.preheader ]
  %43 = icmp sgt i32 %42, 0
  br i1 %43, label %.lr.ph, label %._crit_edge

.lr.ph:                                           ; preds = %.preheader, %63
  %indvars.iv = phi i64 [ %indvars.iv.next, %63 ], [ 0, %.preheader ]
  %44 = getelementptr inbounds nuw i8, ptr %.06169, i64 %indvars.iv
  %45 = load i8, ptr %44, align 1, !tbaa !55
  %46 = zext i8 %45 to i32
  %.not = icmp sgt i32 %21, %46
  %.not65 = icmp slt i32 %19, %46
  %or.cond = select i1 %.not, i1 true, i1 %.not65
  br i1 %or.cond, label %47, label %.sink.split

47:                                               ; preds = %.lr.ph
  %48 = icmp slt i32 %24, %46
  %49 = icmp sgt i32 %25, %46
  %or.cond67 = select i1 %48, i1 %49, i1 false
  br i1 %or.cond67, label %50, label %63

50:                                               ; preds = %47
  br i1 %.not, label %51, label %57

51:                                               ; preds = %50
  %52 = add i32 %26, %46
  %53 = mul nsw i32 %52, 255
  %54 = sdiv i32 %53, %17
  %55 = trunc i32 %54 to i8
  %56 = xor i8 %55, -1
  br label %.sink.split

57:                                               ; preds = %50
  %58 = sub nsw i32 %46, %19
  %59 = mul nsw i32 %58, 255
  %60 = sdiv i32 %59, %17
  %61 = trunc i32 %60 to i8
  br label %.sink.split

.sink.split:                                      ; preds = %.lr.ph, %57, %51
  %.sink = phi i8 [ %56, %51 ], [ %61, %57 ], [ 0, %.lr.ph ]
  %62 = getelementptr inbounds nuw i8, ptr %.06070, i64 %indvars.iv
  store i8 %.sink, ptr %62, align 1, !tbaa !55
  br label %63

63:                                               ; preds = %.sink.split, %47
  %indvars.iv.next = add nuw nsw i64 %indvars.iv, 1
  %64 = load i32, ptr %23, align 8, !tbaa !52
  %65 = sext i32 %64 to i64
  %66 = icmp slt i64 %indvars.iv.next, %65
  br i1 %66, label %.lr.ph, label %._crit_edge.loopexit, !llvm.loop !56

._crit_edge.loopexit:                             ; preds = %63
  %.pre = load i32, ptr %14, align 8, !tbaa !54
  %.pre75 = load i32, ptr %15, align 4, !tbaa !54
  br label %._crit_edge

._crit_edge:                                      ; preds = %._crit_edge.loopexit, %.preheader
  %67 = phi i32 [ %.pre75, %._crit_edge.loopexit ], [ %40, %.preheader ]
  %68 = phi i32 [ %.pre, %._crit_edge.loopexit ], [ %41, %.preheader ]
  %69 = phi i32 [ %64, %._crit_edge.loopexit ], [ %42, %.preheader ]
  %70 = sext i32 %68 to i64
  %71 = getelementptr inbounds i8, ptr %.06169, i64 %70
  %72 = sext i32 %67 to i64
  %73 = getelementptr inbounds i8, ptr %.06070, i64 %72
  %74 = add nsw i32 %.071, 1
  %exitcond.not = icmp eq i32 %74, %13
  br i1 %exitcond.not, label %._crit_edge72, label %.preheader, !llvm.loop !58

._crit_edge72:                                    ; preds = %._crit_edge, %.preheader.lr.ph, %4
  ret i32 0
}